target datalayout = "e-m:e-p270:32:32-p271:32:32-p272:64:64-i64:64-i128:128-f80:128-n8:16:32:64-S128"
target triple = "x86_64-pc-linux-gnu"

@.str.50 = private unnamed_addr constant [8 x i8] c"suspend\00", align 1
@.str.212 = private unnamed_addr constant [8 x i8] c"pending\00", align 1
@.str.213 = private unnamed_addr constant [11 x i8] c"allocating\00", align 1
@.str.214 = private unnamed_addr constant [10 x i8] c"allocated\00", align 1
@.str.215 = private unnamed_addr constant [9 x i8] c"deleting\00", align 1
@.str.216 = private unnamed_addr constant [8 x i8] c"deleted\00", align 1
@.str.217 = private unnamed_addr constant [11 x i8] c"staging-in\00", align 1
@.str.218 = private unnamed_addr constant [10 x i8] c"staged-in\00", align 1
@.str.219 = private unnamed_addr constant [8 x i8] c"pre-run\00", align 1
@.str.220 = private unnamed_addr constant [13 x i8] c"alloc-revoke\00", align 1
@.str.221 = private unnamed_addr constant [8 x i8] c"running\00", align 1
@.str.223 = private unnamed_addr constant [9 x i8] c"post-run\00", align 1
@.str.224 = private unnamed_addr constant [12 x i8] c"staging-out\00", align 1
@.str.225 = private unnamed_addr constant [11 x i8] c"staged-out\00", align 1
@.str.226 = private unnamed_addr constant [9 x i8] c"teardown\00", align 1
@.str.227 = private unnamed_addr constant [14 x i8] c"teardown-fail\00", align 1
@.str.228 = private unnamed_addr constant [9 x i8] c"complete\00", align 1

; Function Attrs: nounwind uwtable
define dso_local zeroext i16 @bb_state_num(ptr noundef %0) #0 {
  %2 = alloca i16, align 2
  %3 = alloca ptr, align 8
  store ptr %0, ptr %3, align 8
  %4 = load ptr, ptr %3, align 8
  %5 = call i32 @xstrcasecmp(ptr noundef %4, ptr noundef @.str.212)
  %6 = icmp ne i32 %5, 0
  br i1 %6, label %8, label %7

7:                                                ; preds = %1
  store i16 0, ptr %2, align 2
  br label %89

8:                                                ; preds = %1
  %9 = load ptr, ptr %3, align 8
  %10 = call i32 @xstrcasecmp(ptr noundef %9, ptr noundef @.str.213)
  %11 = icmp ne i32 %10, 0
  br i1 %11, label %13, label %12

12:                                               ; preds = %8
  store i16 1, ptr %2, align 2
  br label %89

13:                                               ; preds = %8
  %14 = load ptr, ptr %3, align 8
  %15 = call i32 @xstrcasecmp(ptr noundef %14, ptr noundef @.str.214)
  %16 = icmp ne i32 %15, 0
  br i1 %16, label %18, label %17

17:                                               ; preds = %13
  store i16 2, ptr %2, align 2
  br label %89

18:                                               ; preds = %13
  %19 = load ptr, ptr %3, align 8
  %20 = call i32 @xstrcasecmp(ptr noundef %19, ptr noundef @.str.215)
  %21 = icmp ne i32 %20, 0
  br i1 %21, label %23, label %22

22:                                               ; preds = %18
  store i16 5, ptr %2, align 2
  br label %89

23:                                               ; preds = %18
  %24 = load ptr, ptr %3, align 8
  %25 = call i32 @xstrcasecmp(ptr noundef %24, ptr noundef @.str.216)
  %26 = icmp ne i32 %25, 0
  br i1 %26, label %28, label %27

27:                                               ; preds = %23
  store i16 6, ptr %2, align 2
  br label %89

28:                                               ; preds = %23
  %29 = load ptr, ptr %3, align 8
  %30 = call i32 @xstrcasecmp(ptr noundef %29, ptr noundef @.str.217)
  %31 = icmp ne i32 %30, 0
  br i1 %31, label %33, label %32

32:                                               ; preds = %28
  store i16 17, ptr %2, align 2
  br label %89

33:                                               ; preds = %28
  %34 = load ptr, ptr %3, align 8
  %35 = call i32 @xstrcasecmp(ptr noundef %34, ptr noundef @.str.218)
  %36 = icmp ne i32 %35, 0
  br i1 %36, label %38, label %37

37:                                               ; preds = %33
  store i16 18, ptr %2, align 2
  br label %89

38:                                               ; preds = %33
  %39 = load ptr, ptr %3, align 8
  %40 = call i32 @xstrcasecmp(ptr noundef %39, ptr noundef @.str.219)
  %41 = icmp ne i32 %40, 0
  br i1 %41, label %43, label %42

42:                                               ; preds = %38
  store i16 24, ptr %2, align 2
  br label %89

43:                                               ; preds = %38
  %44 = load ptr, ptr %3, align 8
  %45 = call i32 @xstrcasecmp(ptr noundef %44, ptr noundef @.str.220)
  %46 = icmp ne i32 %45, 0
  br i1 %46, label %48, label %47

47:                                               ; preds = %43
  store i16 26, ptr %2, align 2
  br label %89

48:                                               ; preds = %43
  %49 = load ptr, ptr %3, align 8
  %50 = call i32 @xstrcasecmp(ptr noundef %49, ptr noundef @.str.221)
  %51 = icmp ne i32 %50, 0
  br i1 %51, label %53, label %52

52:                                               ; preds = %48
  store i16 33, ptr %2, align 2
  br label %89

53:                                               ; preds = %48
  %54 = load ptr, ptr %3, align 8
  %55 = call i32 @xstrcasecmp(ptr noundef %54, ptr noundef @.str.50)
  %56 = icmp ne i32 %55, 0
  br i1 %56, label %58, label %57

57:                                               ; preds = %53
  store i16 34, ptr %2, align 2
  br label %89

58:                                               ; preds = %53
  %59 = load ptr, ptr %3, align 8
  %60 = call i32 @xstrcasecmp(ptr noundef %59, ptr noundef @.str.223)
  %61 = icmp ne i32 %60, 0
  br i1 %61, label %63, label %62

62:                                               ; preds = %58
  store i16 41, ptr %2, align 2
  br label %89

63:                                               ; preds = %58
  %64 = load ptr, ptr %3, align 8
  %65 = call i32 @xstrcasecmp(ptr noundef %64, ptr noundef @.str.224)
  %66 = icmp ne i32 %65, 0
  br i1 %66, label %68, label %67

67:                                               ; preds = %63
  store i16 49, ptr %2, align 2
  br label %89

68:                                               ; preds = %63
  %69 = load ptr, ptr %3, align 8
  %70 = call i32 @xstrcasecmp(ptr noundef %69, ptr noundef @.str.225)
  %71 = icmp ne i32 %70, 0
  br i1 %71, label %73, label %72

72:                                               ; preds = %68
  store i16 50, ptr %2, align 2
  br label %89

73:                                               ; preds = %68
  %74 = load ptr, ptr %3, align 8
  %75 = call i32 @xstrcasecmp(ptr noundef %74, ptr noundef @.str.226)
  %76 = icmp ne i32 %75, 0
  br i1 %76, label %78, label %77

77:                                               ; preds = %73
  store i16 65, ptr %2, align 2
  br label %89

78:                                               ; preds = %73
  %79 = load ptr, ptr %3, align 8
  %80 = call i32 @xstrcasecmp(ptr noundef %79, ptr noundef @.str.227)
  %81 = icmp ne i32 %80, 0
  br i1 %81, label %83, label %82

82:                                               ; preds = %78
  store i16 67, ptr %2, align 2
  br label %89

83:                                               ; preds = %78
  %84 = load ptr, ptr %3, align 8
  %85 = call i32 @xstrcasecmp(ptr noundef %84, ptr noundef @.str.228)
  %86 = icmp ne i32 %85, 0
  br i1 %86, label %88, label %87

87:                                               ; preds = %83
  store i16 69, ptr %2, align 2
  br label %89

88:                                               ; preds = %83
  store i16 0, ptr %2, align 2
  br label %89

89:                                               ; preds = %88, %87, %82, %77, %72, %67, %62, %57, %52, %47, %42, %37, %32, %27, %22, %17, %12, %7
  %90 = load i16, ptr %2, align 2
  ret i16 %90
}