; Function Attrs: nounwind uwtable
define dso_local zeroext range(i16 0, 70) i16 @bb_state_num(ptr noundef %0) local_unnamed_addr #1 {
  %2 = tail call i32 @xstrcasecmp(ptr noundef %0, ptr noundef nonnull @.str.212) #24
  %.not = icmp eq i32 %2, 0
  br i1 %.not, label %35, label %3

3:                                                ; preds = %1
  %4 = tail call i32 @xstrcasecmp(ptr noundef %0, ptr noundef nonnull @.str.213) #24
  %.not17 = icmp eq i32 %4, 0
  br i1 %.not17, label %35, label %5

5:                                                ; preds = %3
  %6 = tail call i32 @xstrcasecmp(ptr noundef %0, ptr noundef nonnull @.str.214) #24
  %.not18 = icmp eq i32 %6, 0
  br i1 %.not18, label %35, label %7

7:                                                ; preds = %5
  %8 = tail call i32 @xstrcasecmp(ptr noundef %0, ptr noundef nonnull @.str.215) #24
  %.not19 = icmp eq i32 %8, 0
  br i1 %.not19, label %35, label %9

9:                                                ; preds = %7
  %10 = tail call i32 @xstrcasecmp(ptr noundef %0, ptr noundef nonnull @.str.216) #24
  %.not20 = icmp eq i32 %10, 0
  br i1 %.not20, label %35, label %11

11:                                               ; preds = %9
  %12 = tail call i32 @xstrcasecmp(ptr noundef %0, ptr noundef nonnull @.str.217) #24
  %.not21 = icmp eq i32 %12, 0
  br i1 %.not21, label %35, label %13

13:                                               ; preds = %11
  %14 = tail call i32 @xstrcasecmp(ptr noundef %0, ptr noundef nonnull @.str.218) #24
  %.not22 = icmp eq i32 %14, 0
  br i1 %.not22, label %35, label %15

15:                                               ; preds = %13
  %16 = tail call i32 @xstrcasecmp(ptr noundef %0, ptr noundef nonnull @.str.219) #24
  %.not23 = icmp eq i32 %16, 0
  br i1 %.not23, label %35, label %17

17:                                               ; preds = %15
  %18 = tail call i32 @xstrcasecmp(ptr noundef %0, ptr noundef nonnull @.str.220) #24
  %.not24 = icmp eq i32 %18, 0
  br i1 %.not24, label %35, label %19

19:                                               ; preds = %17
  %20 = tail call i32 @xstrcasecmp(ptr noundef %0, ptr noundef nonnull @.str.221) #24
  %.not25 = icmp eq i32 %20, 0
  br i1 %.not25, label %35, label %21

21:                                               ; preds = %19
  %22 = tail call i32 @xstrcasecmp(ptr noundef %0, ptr noundef nonnull @.str.50) #24
  %.not26 = icmp eq i32 %22, 0
  br i1 %.not26, label %35, label %23

23:                                               ; preds = %21
  %24 = tail call i32 @xstrcasecmp(ptr noundef %0, ptr noundef nonnull @.str.223) #24
  %.not27 = icmp eq i32 %24, 0
  br i1 %.not27, label %35, label %25

25:                                               ; preds = %23
  %26 = tail call i32 @xstrcasecmp(ptr noundef %0, ptr noundef nonnull @.str.224) #24
  %.not28 = icmp eq i32 %26, 0
  br i1 %.not28, label %35, label %27

27:                                               ; preds = %25
  %28 = tail call i32 @xstrcasecmp(ptr noundef %0, ptr noundef nonnull @.str.225) #24
  %.not29 = icmp eq i32 %28, 0
  br i1 %.not29, label %35, label %29

29:                                               ; preds = %27
  %30 = tail call i32 @xstrcasecmp(ptr noundef %0, ptr noundef nonnull @.str.226) #24
  %.not30 = icmp eq i32 %30, 0
  br i1 %.not30, label %35, label %31

31:                                               ; preds = %29
  %32 = tail call i32 @xstrcasecmp(ptr noundef %0, ptr noundef nonnull @.str.227) #24
  %.not31 = icmp eq i32 %32, 0
  br i1 %.not31, label %35, label %33

33:                                               ; preds = %31
  %34 = tail call i32 @xstrcasecmp(ptr noundef %0, ptr noundef nonnull @.str.228) #24
  %.not32 = icmp eq i32 %34, 0
  %. = select i1 %.not32, i16 69, i16 0
  br label %35

35:                                               ; preds = %33, %31, %29, %27, %25, %23, %21, %19, %17, %15, %13, %11, %9, %7, %5, %3, %1
  %.0 = phi i16 [ 0, %1 ], [ 1, %3 ], [ 2, %5 ], [ 5, %7 ], [ 6, %9 ], [ 17, %11 ], [ 18, %13 ], [ 24, %15 ], [ 26, %17 ], [ 33, %19 ], [ 34, %21 ], [ 41, %23 ], [ 49, %25 ], [ 50, %27 ], [ 65, %29 ], [ 67, %31 ], [ %., %33 ]
  ret i16 %.0
}